target datalayout = "e-m:e-p270:32:32-p271:32:32-p272:64:64-i64:64-i128:128-f80:128-n8:16:32:64-S128"
target triple = "x86_64-pc-linux-gnu"

%class.TenuredGeneration = type { %class.Generation, %class.MemRegion, ptr, ptr, i64, i64, i64, i64, ptr, ptr, ptr, ptr }
%class.Generation = type { ptr, ptr, %class.MemRegion, %class.VirtualSpace, ptr }
%class.VirtualSpace = type { ptr, ptr, ptr, ptr, i8, i8, ptr, ptr, ptr, ptr, ptr, ptr, i64, i64, i64 }
%class.MemRegion = type { ptr, i64 }

; Function Attrs: mustprogress nounwind uwtable
define hidden void @_ZN17TenuredGeneration20update_promote_statsEv(ptr noundef nonnull align 8 dereferenceable(248) %0) #1 align 2 {
  %2 = alloca ptr, align 8
  %3 = alloca i64, align 8
  %4 = alloca i64, align 8
  store ptr %0, ptr %2, align 8
  %5 = load ptr, ptr %2, align 8
  %6 = load ptr, ptr %5, align 8
  %7 = getelementptr inbounds ptr, ptr %6, i64 1
  %8 = load ptr, ptr %7, align 8
  %9 = call noundef i64 %8(ptr noundef nonnull align 8 dereferenceable(248) %5)
  store i64 %9, ptr %3, align 8
  %10 = load i64, ptr %3, align 8
  %11 = getelementptr inbounds %class.TenuredGeneration, ptr %5, i32 0, i32 7
  %12 = load i64, ptr %11, align 8
  %13 = icmp ugt i64 %10, %12
  br i1 %13, label %14, label %19

14:                                               ; preds = %1
  %15 = load i64, ptr %3, align 8
  %16 = getelementptr inbounds %class.TenuredGeneration, ptr %5, i32 0, i32 7
  %17 = load i64, ptr %16, align 8
  %18 = sub i64 %15, %17
  store i64 %18, ptr %4, align 8
  br label %20

19:                                               ; preds = %1
  store i64 0, ptr %4, align 8
  br label %20

20:                                               ; preds = %19, %14
  %21 = getelementptr inbounds %class.TenuredGeneration, ptr %5, i32 0, i32 11
  %22 = load ptr, ptr %21, align 8
  %23 = load i64, ptr %4, align 8
  %24 = uitofp i64 %23 to float
  call void @_ZN30AdaptivePaddedNoZeroDevAverage6sampleEf(ptr noundef nonnull align 4 dereferenceable(32) %22, float noundef %24)
  ret void
}