; Function Attrs: mustprogress nounwind uwtable
define hidden void @_ZN17TenuredGeneration20update_promote_statsEv(ptr noundef nonnull align 8 dereferenceable(248) %0) local_unnamed_addr #0 align 2 {
  %2 = load ptr, ptr %0, align 8
  %3 = getelementptr inbounds i8, ptr %2, i64 8
  %4 = load ptr, ptr %3, align 8
  %5 = tail call noundef i64 %4(ptr noundef nonnull align 8 dereferenceable(248) %0) #8
  %6 = getelementptr inbounds i8, ptr %0, i64 208
  %7 = load i64, ptr %6, align 8
  %8 = icmp ugt i64 %5, %7
  %9 = sub i64 %5, %7
  %10 = uitofp i64 %9 to float
  %.0 = select i1 %8, float %10, float 0.000000e+00
  %11 = getelementptr inbounds i8, ptr %0, i64 240
  %12 = load ptr, ptr %11, align 8
  tail call void @_ZN30AdaptivePaddedNoZeroDevAverage6sampleEf(ptr noundef nonnull align 4 dereferenceable(32) %12, float noundef %.0) #8
  ret void
}